target datalayout = "e-m:e-p270:32:32-p271:32:32-p272:64:64-i64:64-i128:128-f80:128-n8:16:32:64-S128"
target triple = "x86_64-pc-linux-gnu"

%struct.SDL_VideoDevice = type { ptr, ptr, ptr, ptr, ptr, ptr, ptr, ptr, ptr, ptr, ptr, ptr, ptr, ptr, ptr, ptr, ptr, ptr, ptr, ptr, ptr, ptr, ptr, ptr, ptr, ptr, ptr, ptr, ptr, ptr, ptr, ptr, ptr, ptr, ptr, ptr, ptr, ptr, ptr, ptr, ptr, ptr, ptr, ptr, ptr, ptr, ptr, ptr, ptr, ptr, ptr, ptr, ptr, ptr, ptr, ptr, ptr, ptr, ptr, ptr, ptr, ptr, ptr, ptr, ptr, ptr, ptr, ptr, ptr, ptr, ptr, ptr, ptr, ptr, ptr, ptr, ptr, ptr, ptr, ptr, ptr, ptr, ptr, ptr, ptr, ptr, ptr, ptr, ptr, ptr, ptr, ptr, ptr, ptr, ptr, ptr, ptr, i64, i8, i8, i8, ptr, i32, ptr, %struct.SDL_Rect, ptr, ptr, i32, ptr, ptr, ptr, ptr, i64, ptr, i8, i32, i32, %struct.anon, ptr, ptr, ptr, ptr, ptr, ptr, %struct.SDL_AtomicInt, %struct.SDL_AtomicInt, i8, %struct.anon.0, ptr, ptr, ptr, ptr, ptr }
%struct.SDL_Rect = type { i32, i32, i32, i32 }
%struct.anon = type { i32, i32, i32, i32, i32, i32, i32, i32, i32, i32, i32, i32, i32, i32, i32, i32, i32, i32, i32, i32, i32, i32, i32, i32, i32, i32, i32, i32, i32, [256 x i8], ptr }
%struct.SDL_AtomicInt = type { i32 }
%struct.anon.0 = type { ptr, ptr, i32, [256 x i8], ptr }
%struct.SDL_VideoData = type { ptr, ptr, i32, ptr, i64, i32, ptr, i32, i64, i64, %struct.X11_ClipboardData, %struct.X11_ClipboardData, ptr, i64, %struct.X11_SettingsData, i8, %struct.anon.1, [256 x i32], i8, i8, i8, i64, i8, %struct.SDL_Point, i32, ptr, i32, i8, i32, %struct.anon.2, i8, i64, ptr, ptr, i8, i8, i8 }
%struct.X11_ClipboardData = type { ptr, ptr, ptr, i64, i32 }
%struct.X11_SettingsData = type { ptr }
%struct.anon.1 = type { i64, i64, i64, i64, i64, i64, i64, i64, i64, i64, i64, i64, i64, i64, i64, i64, i64, i64, i64, i64, i64, i64, i64, i64, i64, i64, i64, i64, i64, i64, i64, i64, i64, i64, i64, i64, i64, i64, i64, i64, i64, i64, i64, i64, i64, i64, i64, i64, i64, i64, i64, i64, i64 }
%struct.SDL_Point = type { i32, i32 }
%struct.anon.2 = type { ptr, i32, i32, i32, i16, i32, i32 }

; Function Attrs: nounwind uwtable
define hidden void @X11_QuitClipboard(ptr noundef %0) #0 {
  %2 = alloca ptr, align 8
  %3 = alloca ptr, align 8
  store ptr %0, ptr %2, align 8
  call void @llvm.lifetime.start.p0(i64 8, ptr %3) #6
  %4 = load ptr, ptr %2, align 8
  %5 = getelementptr inbounds nuw %struct.SDL_VideoDevice, ptr %4, i32 0, i32 128
  %6 = load ptr, ptr %5, align 8
  store ptr %6, ptr %3, align 8
  %7 = load ptr, ptr %3, align 8
  %8 = getelementptr inbounds nuw %struct.SDL_VideoData, ptr %7, i32 0, i32 11
  %9 = getelementptr inbounds nuw %struct.X11_ClipboardData, ptr %8, i32 0, i32 4
  %10 = load i32, ptr %9, align 8
  %11 = icmp eq i32 %10, 0
  br i1 %11, label %12, label %17

12:                                               ; preds = %1
  %13 = load ptr, ptr %3, align 8
  %14 = getelementptr inbounds nuw %struct.SDL_VideoData, ptr %13, i32 0, i32 11
  %15 = getelementptr inbounds nuw %struct.X11_ClipboardData, ptr %14, i32 0, i32 1
  %16 = load ptr, ptr %15, align 8
  call void @SDL_free_REAL(ptr noundef %16)
  br label %17

17:                                               ; preds = %12, %1
  %18 = load ptr, ptr %3, align 8
  %19 = getelementptr inbounds nuw %struct.SDL_VideoData, ptr %18, i32 0, i32 10
  %20 = getelementptr inbounds nuw %struct.X11_ClipboardData, ptr %19, i32 0, i32 4
  %21 = load i32, ptr %20, align 8
  %22 = icmp eq i32 %21, 0
  br i1 %22, label %23, label %28

23:                                               ; preds = %17
  %24 = load ptr, ptr %3, align 8
  %25 = getelementptr inbounds nuw %struct.SDL_VideoData, ptr %24, i32 0, i32 10
  %26 = getelementptr inbounds nuw %struct.X11_ClipboardData, ptr %25, i32 0, i32 1
  %27 = load ptr, ptr %26, align 8
  call void @SDL_free_REAL(ptr noundef %27)
  br label %28

28:                                               ; preds = %23, %17
  call void @llvm.lifetime.end.p0(i64 8, ptr %3) #6
  ret void
}