; Function Attrs: nounwind uwtable
define hidden void @X11_QuitClipboard(ptr noundef readonly captures(none) %0) local_unnamed_addr #0 {
  %2 = getelementptr inbounds nuw i8, ptr %0, i64 1656
  %3 = load ptr, ptr %2, align 8
  %4 = getelementptr inbounds nuw i8, ptr %3, i64 152
  %5 = load i32, ptr %4, align 8
  %6 = icmp eq i32 %5, 0
  br i1 %6, label %7, label %10

7:                                                ; preds = %1
  %8 = getelementptr inbounds nuw i8, ptr %3, i64 128
  %9 = load ptr, ptr %8, align 8
  tail call void @SDL_free_REAL(ptr noundef %9) #6
  br label %10

10:                                               ; preds = %7, %1
  %11 = getelementptr inbounds nuw i8, ptr %3, i64 112
  %12 = load i32, ptr %11, align 8
  %13 = icmp eq i32 %12, 0
  br i1 %13, label %14, label %17

14:                                               ; preds = %10
  %15 = getelementptr inbounds nuw i8, ptr %3, i64 88
  %16 = load ptr, ptr %15, align 8
  tail call void @SDL_free_REAL(ptr noundef %16) #6
  br label %17

17:                                               ; preds = %14, %10
  ret void
}